; Function Attrs: mustprogress nofree norecurse nosync nounwind willreturn memory(argmem: read) uwtable
define noundef zeroext i1 @_ZNK32pxrInternal_v0_24__pxrReserved__11HdSelection7IsEmptyEv(ptr nocapture noundef nonnull readonly align 8 dereferenceable(144) %0) local_unnamed_addr #6 align 2 {
  %invariant.gep = getelementptr inbounds i8, ptr %0, i64 24
  br label %2

2:                                                ; preds = %2, %1
  %.09.idx11 = phi i64 [ 8, %1 ], [ %.09.add, %2 ]
  %gep = getelementptr inbounds i8, ptr %invariant.gep, i64 %.09.idx11
  %3 = load i64, ptr %gep, align 8
  %4 = icmp eq i64 %3, 0
  %.09.add = add nuw nsw i64 %.09.idx11, 56
  %.not = icmp ne i64 %.09.add, 120
  %or.cond.not = select i1 %4, i1 %.not, i1 false
  br i1 %or.cond.not, label %2, label %5

5:                                                ; preds = %2
  ret i1 %4
}